target datalayout = "e-m:e-p270:32:32-p271:32:32-p272:64:64-i64:64-i128:128-f80:128-n8:16:32:64-S128"
target triple = "x86_64-pc-linux-gnu"

%struct.SDLTest_Md5Context = type { [2 x i32], [4 x i32], [64 x i8], [16 x i8] }

; Function Attrs: nounwind uwtable
define dso_local void @SDLTest_Md5Update(ptr noundef %0, ptr noundef %1, i32 noundef %2) #0 {
  %4 = alloca ptr, align 8
  %5 = alloca ptr, align 8
  %6 = alloca i32, align 4
  %7 = alloca [16 x i32], align 16
  %8 = alloca i32, align 4
  %9 = alloca i32, align 4
  %10 = alloca i32, align 4
  %11 = alloca i32, align 4
  store ptr %0, ptr %4, align 8
  store ptr %1, ptr %5, align 8
  store i32 %2, ptr %6, align 4
  call void @llvm.lifetime.start.p0(i64 64, ptr %7) #2
  call void @llvm.lifetime.start.p0(i64 4, ptr %8) #2
  call void @llvm.lifetime.start.p0(i64 4, ptr %9) #2
  call void @llvm.lifetime.start.p0(i64 4, ptr %10) #2
  %12 = load ptr, ptr %4, align 8
  %13 = icmp ne ptr %12, null
  br i1 %13, label %15, label %14

14:                                               ; preds = %3
  store i32 1, ptr %11, align 4
  br label %135

15:                                               ; preds = %3
  %16 = load ptr, ptr %5, align 8
  %17 = icmp ne ptr %16, null
  br i1 %17, label %18, label %21

18:                                               ; preds = %15
  %19 = load i32, ptr %6, align 4
  %20 = icmp ult i32 %19, 1
  br i1 %20, label %21, label %22

21:                                               ; preds = %18, %15
  store i32 1, ptr %11, align 4
  br label %135

22:                                               ; preds = %18
  %23 = load ptr, ptr %4, align 8
  %24 = getelementptr inbounds nuw %struct.SDLTest_Md5Context, ptr %23, i32 0, i32 0
  %25 = getelementptr inbounds [2 x i32], ptr %24, i64 0, i64 0
  %26 = load i32, ptr %25, align 4
  %27 = lshr i32 %26, 3
  %28 = and i32 %27, 63
  store i32 %28, ptr %8, align 4
  %29 = load ptr, ptr %4, align 8
  %30 = getelementptr inbounds nuw %struct.SDLTest_Md5Context, ptr %29, i32 0, i32 0
  %31 = getelementptr inbounds [2 x i32], ptr %30, i64 0, i64 0
  %32 = load i32, ptr %31, align 4
  %33 = load i32, ptr %6, align 4
  %34 = shl i32 %33, 3
  %35 = add i32 %32, %34
  %36 = load ptr, ptr %4, align 8
  %37 = getelementptr inbounds nuw %struct.SDLTest_Md5Context, ptr %36, i32 0, i32 0
  %38 = getelementptr inbounds [2 x i32], ptr %37, i64 0, i64 0
  %39 = load i32, ptr %38, align 4
  %40 = icmp ult i32 %35, %39
  br i1 %40, label %41, label %47

41:                                               ; preds = %22
  %42 = load ptr, ptr %4, align 8
  %43 = getelementptr inbounds nuw %struct.SDLTest_Md5Context, ptr %42, i32 0, i32 0
  %44 = getelementptr inbounds [2 x i32], ptr %43, i64 0, i64 1
  %45 = load i32, ptr %44, align 4
  %46 = add i32 %45, 1
  store i32 %46, ptr %44, align 4
  br label %47

47:                                               ; preds = %41, %22
  %48 = load i32, ptr %6, align 4
  %49 = shl i32 %48, 3
  %50 = load ptr, ptr %4, align 8
  %51 = getelementptr inbounds nuw %struct.SDLTest_Md5Context, ptr %50, i32 0, i32 0
  %52 = getelementptr inbounds [2 x i32], ptr %51, i64 0, i64 0
  %53 = load i32, ptr %52, align 4
  %54 = add i32 %53, %49
  store i32 %54, ptr %52, align 4
  %55 = load i32, ptr %6, align 4
  %56 = lshr i32 %55, 29
  %57 = load ptr, ptr %4, align 8
  %58 = getelementptr inbounds nuw %struct.SDLTest_Md5Context, ptr %57, i32 0, i32 0
  %59 = getelementptr inbounds [2 x i32], ptr %58, i64 0, i64 1
  %60 = load i32, ptr %59, align 4
  %61 = add i32 %60, %56
  store i32 %61, ptr %59, align 4
  br label %62

62:                                               ; preds = %133, %47
  %63 = load i32, ptr %6, align 4
  %64 = add i32 %63, -1
  store i32 %64, ptr %6, align 4
  %65 = icmp ne i32 %63, 0
  br i1 %65, label %66, label %134

66:                                               ; preds = %62
  %67 = load ptr, ptr %5, align 8
  %68 = getelementptr inbounds nuw i8, ptr %67, i32 1
  store ptr %68, ptr %5, align 8
  %69 = load i8, ptr %67, align 1
  %70 = load ptr, ptr %4, align 8
  %71 = getelementptr inbounds nuw %struct.SDLTest_Md5Context, ptr %70, i32 0, i32 2
  %72 = load i32, ptr %8, align 4
  %73 = add nsw i32 %72, 1
  store i32 %73, ptr %8, align 4
  %74 = sext i32 %72 to i64
  %75 = getelementptr inbounds [64 x i8], ptr %71, i64 0, i64 %74
  store i8 %69, ptr %75, align 1
  %76 = load i32, ptr %8, align 4
  %77 = icmp eq i32 %76, 64
  br i1 %77, label %78, label %133

78:                                               ; preds = %66
  store i32 0, ptr %9, align 4
  store i32 0, ptr %10, align 4
  br label %79

79:                                               ; preds = %123, %78
  %80 = load i32, ptr %9, align 4
  %81 = icmp ult i32 %80, 16
  br i1 %81, label %82, label %128

82:                                               ; preds = %79
  %83 = load ptr, ptr %4, align 8
  %84 = getelementptr inbounds nuw %struct.SDLTest_Md5Context, ptr %83, i32 0, i32 2
  %85 = load i32, ptr %10, align 4
  %86 = add i32 %85, 3
  %87 = zext i32 %86 to i64
  %88 = getelementptr inbounds nuw [64 x i8], ptr %84, i64 0, i64 %87
  %89 = load i8, ptr %88, align 1
  %90 = zext i8 %89 to i32
  %91 = shl i32 %90, 24
  %92 = load ptr, ptr %4, align 8
  %93 = getelementptr inbounds nuw %struct.SDLTest_Md5Context, ptr %92, i32 0, i32 2
  %94 = load i32, ptr %10, align 4
  %95 = add i32 %94, 2
  %96 = zext i32 %95 to i64
  %97 = getelementptr inbounds nuw [64 x i8], ptr %93, i64 0, i64 %96
  %98 = load i8, ptr %97, align 1
  %99 = zext i8 %98 to i32
  %100 = shl i32 %99, 16
  %101 = or i32 %91, %100
  %102 = load ptr, ptr %4, align 8
  %103 = getelementptr inbounds nuw %struct.SDLTest_Md5Context, ptr %102, i32 0, i32 2
  %104 = load i32, ptr %10, align 4
  %105 = add i32 %104, 1
  %106 = zext i32 %105 to i64
  %107 = getelementptr inbounds nuw [64 x i8], ptr %103, i64 0, i64 %106
  %108 = load i8, ptr %107, align 1
  %109 = zext i8 %108 to i32
  %110 = shl i32 %109, 8
  %111 = or i32 %101, %110
  %112 = load ptr, ptr %4, align 8
  %113 = getelementptr inbounds nuw %struct.SDLTest_Md5Context, ptr %112, i32 0, i32 2
  %114 = load i32, ptr %10, align 4
  %115 = zext i32 %114 to i64
  %116 = getelementptr inbounds nuw [64 x i8], ptr %113, i64 0, i64 %115
  %117 = load i8, ptr %116, align 1
  %118 = zext i8 %117 to i32
  %119 = or i32 %111, %118
  %120 = load i32, ptr %9, align 4
  %121 = zext i32 %120 to i64
  %122 = getelementptr inbounds nuw [16 x i32], ptr %7, i64 0, i64 %121
  store i32 %119, ptr %122, align 4
  br label %123

123:                                              ; preds = %82
  %124 = load i32, ptr %9, align 4
  %125 = add i32 %124, 1
  store i32 %125, ptr %9, align 4
  %126 = load i32, ptr %10, align 4
  %127 = add i32 %126, 4
  store i32 %127, ptr %10, align 4
  br label %79, !llvm.loop !4

128:                                              ; preds = %79
  %129 = load ptr, ptr %4, align 8
  %130 = getelementptr inbounds nuw %struct.SDLTest_Md5Context, ptr %129, i32 0, i32 1
  %131 = getelementptr inbounds [4 x i32], ptr %130, i64 0, i64 0
  %132 = getelementptr inbounds [16 x i32], ptr %7, i64 0, i64 0
  call void @SDLTest_Md5Transform(ptr noundef %131, ptr noundef %132)
  store i32 0, ptr %8, align 4
  br label %133

133:                                              ; preds = %128, %66
  br label %62, !llvm.loop !6

134:                                              ; preds = %62
  store i32 0, ptr %11, align 4
  br label %135

135:                                              ; preds = %134, %21, %14
  call void @llvm.lifetime.end.p0(i64 4, ptr %10) #2
  call void @llvm.lifetime.end.p0(i64 4, ptr %9) #2
  call void @llvm.lifetime.end.p0(i64 4, ptr %8) #2
  call void @llvm.lifetime.end.p0(i64 64, ptr %7) #2
  %136 = load i32, ptr %11, align 4
  switch i32 %136, label %138 [
    i32 0, label %137
    i32 1, label %137
  ]

137:                                              ; preds = %135, %135
  ret void

138:                                              ; preds = %135
  unreachable
}