; Function Attrs: nofree norecurse nosync nounwind memory(argmem: readwrite) uwtable
define dso_local void @SDLTest_Md5Update(ptr noundef captures(address_is_null) %0, ptr noundef readonly captures(address_is_null) %1, i32 noundef %2) local_unnamed_addr #1 {
  %4 = alloca [16 x i32], align 16
  call void @llvm.lifetime.start.p0(i64 64, ptr nonnull %4) #6
  %.not = icmp eq ptr %0, null
  br i1 %.not, label %.loopexit, label %5

5:                                                ; preds = %3
  %6 = icmp eq ptr %1, null
  %7 = icmp eq i32 %2, 0
  %or.cond = or i1 %6, %7
  br i1 %or.cond, label %.loopexit, label %.lr.ph

.lr.ph:                                           ; preds = %5
  %8 = load i32, ptr %0, align 4
  %9 = lshr i32 %8, 3
  %10 = and i32 %9, 63
  %11 = shl i32 %2, 3
  %12 = xor i32 %8, -1
  %13 = icmp ugt i32 %11, %12
  %14 = getelementptr inbounds nuw i8, ptr %0, i64 4
  %15 = load i32, ptr %14, align 4
  %16 = zext i1 %13 to i32
  %17 = add i32 %15, %16
  %18 = add i32 %8, %11
  store i32 %18, ptr %0, align 4
  %19 = lshr i32 %2, 29
  %20 = getelementptr inbounds nuw i8, ptr %0, i64 4
  %21 = add i32 %17, %19
  store i32 %21, ptr %20, align 4
  %22 = getelementptr inbounds nuw i8, ptr %0, i64 24
  %23 = getelementptr inbounds nuw i8, ptr %0, i64 8
  br label %24

24:                                               ; preds = %.lr.ph, %55
  %.in = phi i32 [ %2, %.lr.ph ], [ %25, %55 ]
  %.03143 = phi i32 [ %10, %.lr.ph ], [ %.1, %55 ]
  %.03342 = phi ptr [ %1, %.lr.ph ], [ %26, %55 ]
  %25 = add i32 %.in, -1
  %26 = getelementptr inbounds nuw i8, ptr %.03342, i64 1
  %27 = load i8, ptr %.03342, align 1
  %28 = add nuw nsw i32 %.03143, 1
  %29 = zext nneg i32 %.03143 to i64
  %30 = getelementptr inbounds nuw [64 x i8], ptr %22, i64 0, i64 %29
  store i8 %27, ptr %30, align 1
  %31 = icmp eq i32 %28, 64
  br i1 %31, label %.preheader, label %55

.preheader:                                       ; preds = %24, %.preheader
  %indvars.iv44 = phi i64 [ %indvars.iv.next45, %.preheader ], [ 0, %24 ]
  %indvars.iv = phi i64 [ %indvars.iv.next, %.preheader ], [ 0, %24 ]
  %32 = or disjoint i64 %indvars.iv, 3
  %33 = getelementptr inbounds nuw [64 x i8], ptr %22, i64 0, i64 %32
  %34 = load i8, ptr %33, align 1
  %35 = zext i8 %34 to i32
  %36 = shl nuw i32 %35, 24
  %37 = or disjoint i64 %indvars.iv, 2
  %38 = getelementptr inbounds nuw [64 x i8], ptr %22, i64 0, i64 %37
  %39 = load i8, ptr %38, align 1
  %40 = zext i8 %39 to i32
  %41 = shl nuw nsw i32 %40, 16
  %42 = or disjoint i32 %41, %36
  %43 = or disjoint i64 %indvars.iv, 1
  %44 = getelementptr inbounds nuw [64 x i8], ptr %22, i64 0, i64 %43
  %45 = load i8, ptr %44, align 1
  %46 = zext i8 %45 to i32
  %47 = shl nuw nsw i32 %46, 8
  %48 = or disjoint i32 %42, %47
  %49 = getelementptr inbounds nuw [64 x i8], ptr %22, i64 0, i64 %indvars.iv
  %50 = load i8, ptr %49, align 1
  %51 = zext i8 %50 to i32
  %52 = or disjoint i32 %48, %51
  %53 = getelementptr inbounds nuw [16 x i32], ptr %4, i64 0, i64 %indvars.iv44
  store i32 %52, ptr %53, align 4
  %indvars.iv.next45 = add nuw nsw i64 %indvars.iv44, 1
  %indvars.iv.next = add nuw nsw i64 %indvars.iv, 4
  %exitcond.not = icmp eq i64 %indvars.iv.next45, 16
  br i1 %exitcond.not, label %54, label %.preheader, !llvm.loop !4

54:                                               ; preds = %.preheader
  call fastcc void @SDLTest_Md5Transform(ptr noundef %23, ptr noundef %4)
  br label %55

55:                                               ; preds = %54, %24
  %.1 = phi i32 [ 0, %54 ], [ %28, %24 ]
  %.not38 = icmp eq i32 %25, 0
  br i1 %.not38, label %.loopexit, label %24, !llvm.loop !6

.loopexit:                                        ; preds = %55, %5, %3
  call void @llvm.lifetime.end.p0(i64 64, ptr nonnull %4) #6
  ret void
}